target datalayout = "e-m:e-p270:32:32-p271:32:32-p272:64:64-i64:64-i128:128-f80:128-n8:16:32:64-S128"
target triple = "x86_64-pc-linux-gnu"

%struct._lv_lru_t = type { ptr, i64, i64, i64, i64, i64, i32, ptr, ptr, ptr }
%struct._lv_lru_item_t = type { ptr, ptr, i64, i64, i64, ptr }

; Function Attrs: nounwind uwtable
define internal i32 @lv_lru_cmp_keys(ptr noundef %0, ptr noundef %1, i32 noundef %2) #0 {
  %4 = alloca i32, align 4
  %5 = alloca ptr, align 8
  %6 = alloca ptr, align 8
  %7 = alloca i32, align 4
  store ptr %0, ptr %5, align 8, !tbaa !7
  store ptr %1, ptr %6, align 8, !tbaa !7
  store i32 %2, ptr %7, align 4, !tbaa !19
  %8 = load i32, ptr %7, align 4, !tbaa !19
  %9 = zext i32 %8 to i64
  %10 = load ptr, ptr %5, align 8, !tbaa !7
  %11 = getelementptr inbounds nuw %struct._lv_lru_item_t, ptr %10, i32 0, i32 3
  %12 = load i64, ptr %11, align 8, !tbaa !31
  %13 = icmp ne i64 %9, %12
  br i1 %13, label %14, label %15

14:                                               ; preds = %3
  store i32 1, ptr %4, align 4
  br label %23

15:                                               ; preds = %3
  %16 = load ptr, ptr %6, align 8, !tbaa !7
  %17 = load ptr, ptr %5, align 8, !tbaa !7
  %18 = getelementptr inbounds nuw %struct._lv_lru_item_t, ptr %17, i32 0, i32 1
  %19 = load ptr, ptr %18, align 8, !tbaa !23
  %20 = load i32, ptr %7, align 4, !tbaa !19
  %21 = zext i32 %20 to i64
  %22 = call i32 @lv_memcmp(ptr noundef %16, ptr noundef %19, i64 noundef %21)
  store i32 %22, ptr %4, align 4
  br label %23

23:                                               ; preds = %15, %14
  %24 = load i32, ptr %4, align 4
  ret i32 %24
}

; Function Attrs: nounwind uwtable
define internal i32 @lv_lru_hash(ptr noundef %0, ptr noundef %1, i32 noundef %2) #0 {
  %4 = alloca ptr, align 8
  %5 = alloca ptr, align 8
  %6 = alloca i32, align 4
  %7 = alloca i32, align 4
  %8 = alloca i32, align 4
  %9 = alloca i32, align 4
  %10 = alloca ptr, align 8
  %11 = alloca i32, align 4
  store ptr %0, ptr %4, align 8, !tbaa !7
  store ptr %1, ptr %5, align 8, !tbaa !7
  store i32 %2, ptr %6, align 4, !tbaa !19
  call void @llvm.lifetime.start.p0(i64 4, ptr %7) #4
  store i32 1540483477, ptr %7, align 4, !tbaa !19
  call void @llvm.lifetime.start.p0(i64 4, ptr %8) #4
  store i32 24, ptr %8, align 4, !tbaa !19
  call void @llvm.lifetime.start.p0(i64 4, ptr %9) #4
  %12 = load ptr, ptr %4, align 8, !tbaa !7
  %13 = getelementptr inbounds nuw %struct._lv_lru_t, ptr %12, i32 0, i32 6
  %14 = load i32, ptr %13, align 8, !tbaa !15
  %15 = load i32, ptr %6, align 4, !tbaa !19
  %16 = xor i32 %14, %15
  store i32 %16, ptr %9, align 4, !tbaa !19
  call void @llvm.lifetime.start.p0(i64 8, ptr %10) #4
  %17 = load ptr, ptr %5, align 8, !tbaa !7
  store ptr %17, ptr %10, align 8, !tbaa !7
  br label %18

18:                                               ; preds = %21, %3
  %19 = load i32, ptr %6, align 4, !tbaa !19
  %20 = icmp uge i32 %19, 4
  br i1 %20, label %21, label %45

21:                                               ; preds = %18
  call void @llvm.lifetime.start.p0(i64 4, ptr %11) #4
  %22 = load ptr, ptr %10, align 8, !tbaa !7
  %23 = load i32, ptr %22, align 4, !tbaa !19
  store i32 %23, ptr %11, align 4, !tbaa !19
  %24 = load i32, ptr %7, align 4, !tbaa !19
  %25 = load i32, ptr %11, align 4, !tbaa !19
  %26 = mul i32 %25, %24
  store i32 %26, ptr %11, align 4, !tbaa !19
  %27 = load i32, ptr %11, align 4, !tbaa !19
  %28 = load i32, ptr %8, align 4, !tbaa !19
  %29 = lshr i32 %27, %28
  %30 = load i32, ptr %11, align 4, !tbaa !19
  %31 = xor i32 %30, %29
  store i32 %31, ptr %11, align 4, !tbaa !19
  %32 = load i32, ptr %7, align 4, !tbaa !19
  %33 = load i32, ptr %11, align 4, !tbaa !19
  %34 = mul i32 %33, %32
  store i32 %34, ptr %11, align 4, !tbaa !19
  %35 = load i32, ptr %7, align 4, !tbaa !19
  %36 = load i32, ptr %9, align 4, !tbaa !19
  %37 = mul i32 %36, %35
  store i32 %37, ptr %9, align 4, !tbaa !19
  %38 = load i32, ptr %11, align 4, !tbaa !19
  %39 = load i32, ptr %9, align 4, !tbaa !19
  %40 = xor i32 %39, %38
  store i32 %40, ptr %9, align 4, !tbaa !19
  %41 = load ptr, ptr %10, align 8, !tbaa !7
  %42 = getelementptr inbounds i8, ptr %41, i64 4
  store ptr %42, ptr %10, align 8, !tbaa !7
  %43 = load i32, ptr %6, align 4, !tbaa !19
  %44 = sub i32 %43, 4
  store i32 %44, ptr %6, align 4, !tbaa !19
  call void @llvm.lifetime.end.p0(i64 4, ptr %11) #4
  br label %18, !llvm.loop !35

45:                                               ; preds = %18
  %46 = load i32, ptr %6, align 4, !tbaa !19
  %47 = icmp uge i32 %46, 3
  br i1 %47, label %48, label %56

48:                                               ; preds = %45
  %49 = load ptr, ptr %10, align 8, !tbaa !7
  %50 = getelementptr inbounds i8, ptr %49, i64 2
  %51 = load i8, ptr %50, align 1, !tbaa !36
  %52 = sext i8 %51 to i32
  %53 = shl i32 %52, 16
  %54 = load i32, ptr %9, align 4, !tbaa !19
  %55 = xor i32 %54, %53
  store i32 %55, ptr %9, align 4, !tbaa !19
  br label %56

56:                                               ; preds = %48, %45
  %57 = load i32, ptr %6, align 4, !tbaa !19
  %58 = icmp uge i32 %57, 2
  br i1 %58, label %59, label %67

59:                                               ; preds = %56
  %60 = load ptr, ptr %10, align 8, !tbaa !7
  %61 = getelementptr inbounds i8, ptr %60, i64 1
  %62 = load i8, ptr %61, align 1, !tbaa !36
  %63 = sext i8 %62 to i32
  %64 = shl i32 %63, 8
  %65 = load i32, ptr %9, align 4, !tbaa !19
  %66 = xor i32 %65, %64
  store i32 %66, ptr %9, align 4, !tbaa !19
  br label %67

67:                                               ; preds = %59, %56
  %68 = load i32, ptr %6, align 4, !tbaa !19
  %69 = icmp uge i32 %68, 1
  br i1 %69, label %70, label %80

70:                                               ; preds = %67
  %71 = load ptr, ptr %10, align 8, !tbaa !7
  %72 = getelementptr inbounds i8, ptr %71, i64 0
  %73 = load i8, ptr %72, align 1, !tbaa !36
  %74 = sext i8 %73 to i32
  %75 = load i32, ptr %9, align 4, !tbaa !19
  %76 = xor i32 %75, %74
  store i32 %76, ptr %9, align 4, !tbaa !19
  %77 = load i32, ptr %7, align 4, !tbaa !19
  %78 = load i32, ptr %9, align 4, !tbaa !19
  %79 = mul i32 %78, %77
  store i32 %79, ptr %9, align 4, !tbaa !19
  br label %80

80:                                               ; preds = %70, %67
  %81 = load i32, ptr %9, align 4, !tbaa !19
  %82 = lshr i32 %81, 13
  %83 = load i32, ptr %9, align 4, !tbaa !19
  %84 = xor i32 %83, %82
  store i32 %84, ptr %9, align 4, !tbaa !19
  %85 = load i32, ptr %7, align 4, !tbaa !19
  %86 = load i32, ptr %9, align 4, !tbaa !19
  %87 = mul i32 %86, %85
  store i32 %87, ptr %9, align 4, !tbaa !19
  %88 = load i32, ptr %9, align 4, !tbaa !19
  %89 = lshr i32 %88, 15
  %90 = load i32, ptr %9, align 4, !tbaa !19
  %91 = xor i32 %90, %89
  store i32 %91, ptr %9, align 4, !tbaa !19
  %92 = load i32, ptr %9, align 4, !tbaa !19
  %93 = zext i32 %92 to i64
  %94 = load ptr, ptr %4, align 8, !tbaa !7
  %95 = getelementptr inbounds nuw %struct._lv_lru_t, ptr %94, i32 0, i32 5
  %96 = load i64, ptr %95, align 8, !tbaa !9
  %97 = urem i64 %93, %96
  %98 = trunc i64 %97 to i32
  call void @llvm.lifetime.end.p0(i64 8, ptr %10) #4
  call void @llvm.lifetime.end.p0(i64 4, ptr %9) #4
  call void @llvm.lifetime.end.p0(i64 4, ptr %8) #4
  call void @llvm.lifetime.end.p0(i64 4, ptr %7) #4
  ret i32 %98
}

; Function Attrs: nounwind uwtable
define i32 @lv_lru_get(ptr noundef %0, ptr noundef %1, i64 noundef %2, ptr noundef %3) #0 {
  %5 = alloca i32, align 4
  %6 = alloca ptr, align 8
  %7 = alloca ptr, align 8
  %8 = alloca i64, align 8
  %9 = alloca ptr, align 8
  %10 = alloca i32, align 4
  %11 = alloca ptr, align 8
  store ptr %0, ptr %6, align 8, !tbaa !7
  store ptr %1, ptr %7, align 8, !tbaa !7
  store i64 %2, ptr %8, align 8, !tbaa !3
  store ptr %3, ptr %9, align 8, !tbaa !7
  %12 = load ptr, ptr %6, align 8, !tbaa !7
  %13 = icmp ne ptr %12, null
  br i1 %13, label %15, label %14

14:                                               ; preds = %4
  store i32 1, ptr %5, align 4
  br label %65

15:                                               ; preds = %4
  %16 = load ptr, ptr %7, align 8, !tbaa !7
  %17 = icmp ne ptr %16, null
  br i1 %17, label %19, label %18

18:                                               ; preds = %15
  store i32 2, ptr %5, align 4
  br label %65

19:                                               ; preds = %15
  call void @llvm.lifetime.start.p0(i64 4, ptr %10) #4
  %20 = load ptr, ptr %6, align 8, !tbaa !7
  %21 = load ptr, ptr %7, align 8, !tbaa !7
  %22 = load i64, ptr %8, align 8, !tbaa !3
  %23 = trunc i64 %22 to i32
  %24 = call i32 @lv_lru_hash(ptr noundef %20, ptr noundef %21, i32 noundef %23)
  store i32 %24, ptr %10, align 4, !tbaa !19
  call void @llvm.lifetime.start.p0(i64 8, ptr %11) #4
  %25 = load ptr, ptr %6, align 8, !tbaa !7
  %26 = getelementptr inbounds nuw %struct._lv_lru_t, ptr %25, i32 0, i32 0
  %27 = load ptr, ptr %26, align 8, !tbaa !18
  %28 = load i32, ptr %10, align 4, !tbaa !19
  %29 = zext i32 %28 to i64
  %30 = getelementptr inbounds nuw ptr, ptr %27, i64 %29
  %31 = load ptr, ptr %30, align 8, !tbaa !7
  store ptr %31, ptr %11, align 8, !tbaa !7
  br label %32

32:                                               ; preds = %44, %19
  %33 = load ptr, ptr %11, align 8, !tbaa !7
  %34 = icmp ne ptr %33, null
  br i1 %34, label %35, label %42

35:                                               ; preds = %32
  %36 = load ptr, ptr %11, align 8, !tbaa !7
  %37 = load ptr, ptr %7, align 8, !tbaa !7
  %38 = load i64, ptr %8, align 8, !tbaa !3
  %39 = trunc i64 %38 to i32
  %40 = call i32 @lv_lru_cmp_keys(ptr noundef %36, ptr noundef %37, i32 noundef %39)
  %41 = icmp ne i32 %40, 0
  br label %42

42:                                               ; preds = %35, %32
  %43 = phi i1 [ false, %32 ], [ %41, %35 ]
  br i1 %43, label %44, label %48

44:                                               ; preds = %42
  %45 = load ptr, ptr %11, align 8, !tbaa !7
  %46 = getelementptr inbounds nuw %struct._lv_lru_item_t, ptr %45, i32 0, i32 5
  %47 = load ptr, ptr %46, align 8, !tbaa !20
  store ptr %47, ptr %11, align 8, !tbaa !7
  br label %32, !llvm.loop !39

48:                                               ; preds = %42
  %49 = load ptr, ptr %11, align 8, !tbaa !7
  %50 = icmp ne ptr %49, null
  br i1 %50, label %51, label %62

51:                                               ; preds = %48
  %52 = load ptr, ptr %11, align 8, !tbaa !7
  %53 = getelementptr inbounds nuw %struct._lv_lru_item_t, ptr %52, i32 0, i32 0
  %54 = load ptr, ptr %53, align 8, !tbaa !22
  %55 = load ptr, ptr %9, align 8, !tbaa !7
  store ptr %54, ptr %55, align 8, !tbaa !7
  %56 = load ptr, ptr %6, align 8, !tbaa !7
  %57 = getelementptr inbounds nuw %struct._lv_lru_t, ptr %56, i32 0, i32 1
  %58 = load i64, ptr %57, align 8, !tbaa !32
  %59 = add i64 %58, 1
  store i64 %59, ptr %57, align 8, !tbaa !32
  %60 = load ptr, ptr %11, align 8, !tbaa !7
  %61 = getelementptr inbounds nuw %struct._lv_lru_item_t, ptr %60, i32 0, i32 4
  store i64 %59, ptr %61, align 8, !tbaa !33
  br label %64

62:                                               ; preds = %48
  %63 = load ptr, ptr %9, align 8, !tbaa !7
  store ptr null, ptr %63, align 8, !tbaa !7
  br label %64

64:                                               ; preds = %62, %51
  store i32 0, ptr %5, align 4
  call void @llvm.lifetime.end.p0(i64 8, ptr %11) #4
  call void @llvm.lifetime.end.p0(i64 4, ptr %10) #4
  br label %65

65:                                               ; preds = %64, %18, %14
  %66 = load i32, ptr %5, align 4
  ret i32 %66
}