; Function Attrs: nounwind uwtable
define range(i32 0, 3) i32 @lv_lru_get(ptr noundef %0, ptr noundef %1, i64 noundef %2, ptr nocapture noundef writeonly %3) local_unnamed_addr #0 {
  %.not = icmp eq ptr %0, null
  br i1 %.not, label %65, label %5

5:                                                ; preds = %4
  %.not21 = icmp eq ptr %1, null
  br i1 %.not21, label %65, label %6

6:                                                ; preds = %5
  %7 = trunc i64 %2 to i32
  %8 = getelementptr inbounds nuw i8, ptr %0, i64 48
  %9 = load i32, ptr %8, align 8, !tbaa !13
  %10 = xor i32 %9, %7
  %11 = icmp ugt i32 %7, 3
  br i1 %11, label %.lr.ph.i, label %._crit_edge.i

.lr.ph.i:                                         ; preds = %6, %.lr.ph.i
  %.046.i = phi i32 [ %20, %.lr.ph.i ], [ %7, %6 ]
  %.03645.i = phi ptr [ %19, %.lr.ph.i ], [ %1, %6 ]
  %.03744.i = phi i32 [ %18, %.lr.ph.i ], [ %10, %6 ]
  %12 = load i32, ptr %.03645.i, align 4, !tbaa !28
  %13 = mul i32 %12, 1540483477
  %14 = lshr i32 %13, 24
  %15 = xor i32 %14, %13
  %16 = mul i32 %15, 1540483477
  %17 = mul i32 %.03744.i, 1540483477
  %18 = xor i32 %16, %17
  %19 = getelementptr inbounds i8, ptr %.03645.i, i64 4
  %20 = add i32 %.046.i, -4
  %21 = icmp ugt i32 %20, 3
  br i1 %21, label %.lr.ph.i, label %._crit_edge.i, !llvm.loop !29

._crit_edge.i:                                    ; preds = %.lr.ph.i, %6
  %.037.lcssa.i = phi i32 [ %10, %6 ], [ %18, %.lr.ph.i ]
  %.036.lcssa.i = phi ptr [ %1, %6 ], [ %19, %.lr.ph.i ]
  %.0.lcssa.i = phi i32 [ %7, %6 ], [ %20, %.lr.ph.i ]
  %22 = icmp eq i32 %.0.lcssa.i, 3
  br i1 %22, label %.thread.i, label %28

.thread.i:                                        ; preds = %._crit_edge.i
  %23 = getelementptr inbounds i8, ptr %.036.lcssa.i, i64 2
  %24 = load i8, ptr %23, align 1, !tbaa !30
  %25 = sext i8 %24 to i32
  %26 = shl nsw i32 %25, 16
  %27 = xor i32 %26, %.037.lcssa.i
  br label %.thread40.i

28:                                               ; preds = %._crit_edge.i
  %29 = icmp samesign ugt i32 %.0.lcssa.i, 1
  br i1 %29, label %.thread40.i, label %35

.thread40.i:                                      ; preds = %28, %.thread.i
  %.139.i = phi i32 [ %27, %.thread.i ], [ %.037.lcssa.i, %28 ]
  %30 = getelementptr inbounds i8, ptr %.036.lcssa.i, i64 1
  %31 = load i8, ptr %30, align 1, !tbaa !30
  %32 = sext i8 %31 to i32
  %33 = shl nsw i32 %32, 8
  %34 = xor i32 %33, %.139.i
  br label %36

35:                                               ; preds = %28
  %.not.i = icmp eq i32 %.0.lcssa.i, 0
  br i1 %.not.i, label %lv_lru_hash.exit, label %36

36:                                               ; preds = %35, %.thread40.i
  %.243.i = phi i32 [ %34, %.thread40.i ], [ %.037.lcssa.i, %35 ]
  %37 = load i8, ptr %.036.lcssa.i, align 1, !tbaa !30
  %38 = sext i8 %37 to i32
  %39 = xor i32 %.243.i, %38
  %40 = mul i32 %39, 1540483477
  br label %lv_lru_hash.exit

lv_lru_hash.exit:                                 ; preds = %35, %36
  %.3.i = phi i32 [ %40, %36 ], [ %.037.lcssa.i, %35 ]
  %41 = lshr i32 %.3.i, 13
  %42 = xor i32 %41, %.3.i
  %43 = mul i32 %42, 1540483477
  %44 = lshr i32 %43, 15
  %45 = xor i32 %44, %43
  %46 = zext i32 %45 to i64
  %47 = getelementptr inbounds nuw i8, ptr %0, i64 40
  %48 = load i64, ptr %47, align 8, !tbaa !3
  %49 = urem i64 %46, %48
  %50 = load ptr, ptr %0, align 8, !tbaa !16
  %51 = getelementptr inbounds nuw ptr, ptr %50, i64 %49
  %.031 = load ptr, ptr %51, align 8, !tbaa !17
  %.not2232 = icmp eq ptr %.031, null
  br i1 %.not2232, label %.critedge24, label %.lr.ph

.lr.ph:                                           ; preds = %lv_lru_hash.exit
  %52 = and i64 %2, 4294967295
  br label %53

53:                                               ; preds = %.lr.ph, %lv_lru_cmp_keys.exit.thread
  %.033 = phi ptr [ %.031, %.lr.ph ], [ %.0, %lv_lru_cmp_keys.exit.thread ]
  %54 = getelementptr inbounds nuw i8, ptr %.033, i64 24
  %55 = load i64, ptr %54, align 8, !tbaa !31
  %.not.i25 = icmp eq i64 %55, %52
  br i1 %.not.i25, label %lv_lru_cmp_keys.exit, label %lv_lru_cmp_keys.exit.thread

lv_lru_cmp_keys.exit:                             ; preds = %53
  %56 = getelementptr inbounds nuw i8, ptr %.033, i64 8
  %57 = load ptr, ptr %56, align 8, !tbaa !21
  %58 = tail call i32 @lv_memcmp(ptr noundef nonnull %1, ptr noundef %57, i64 noundef %52) #2
  %.not23 = icmp eq i32 %58, 0
  br i1 %.not23, label %.critedge, label %lv_lru_cmp_keys.exit.thread

lv_lru_cmp_keys.exit.thread:                      ; preds = %53, %lv_lru_cmp_keys.exit
  %59 = getelementptr inbounds nuw i8, ptr %.033, i64 40
  %.0 = load ptr, ptr %59, align 8, !tbaa !17
  %.not22 = icmp eq ptr %.0, null
  br i1 %.not22, label %.critedge24, label %53, !llvm.loop !39

.critedge:                                        ; preds = %lv_lru_cmp_keys.exit
  %60 = load ptr, ptr %.033, align 8, !tbaa !20
  store ptr %60, ptr %3, align 8, !tbaa !17
  %61 = getelementptr inbounds nuw i8, ptr %0, i64 8
  %62 = load i64, ptr %61, align 8, !tbaa !33
  %63 = add i64 %62, 1
  store i64 %63, ptr %61, align 8, !tbaa !33
  %64 = getelementptr inbounds nuw i8, ptr %.033, i64 32
  store i64 %63, ptr %64, align 8, !tbaa !34
  br label %65

.critedge24:                                      ; preds = %lv_lru_cmp_keys.exit.thread, %lv_lru_hash.exit
  store ptr null, ptr %3, align 8, !tbaa !17
  br label %65

65:                                               ; preds = %.critedge, %.critedge24, %5, %4
  %.018 = phi i32 [ 1, %4 ], [ 2, %5 ], [ 0, %.critedge24 ], [ 0, %.critedge ]
  ret i32 %.018
}